target datalayout = "e-m:e-p270:32:32-p271:32:32-p272:64:64-i64:64-i128:128-f80:128-n8:16:32:64-S128"
target triple = "x86_64-pc-linux-gnu"

%"class.LIEF::MachO::ExportInfo" = type { %"class.LIEF::Object", i64, i64, i64, i64, ptr, ptr, ptr }
%"class.LIEF::Object" = type { ptr }

; Function Attrs: inlinehint mustprogress nounwind uwtable
define linkonce_odr void @_ZSt4swapIPN4LIEF5MachO12DylibCommandEENSt9enable_ifIXsr6__and_ISt6__not_ISt15__is_tuple_likeIT_EESt21is_move_constructibleIS7_ESt18is_move_assignableIS7_EEE5valueEvE4typeERS7_SG_(ptr noundef nonnull align 8 dereferenceable(8) %0, ptr noundef nonnull align 8 dereferenceable(8) %1) #2 comdat {
  %3 = alloca ptr, align 8
  %4 = alloca ptr, align 8
  %5 = alloca ptr, align 8
  store ptr %0, ptr %3, align 8, !tbaa !29
  store ptr %1, ptr %4, align 8, !tbaa !29
  call void @llvm.lifetime.start.p0(i64 8, ptr %5) #19
  %6 = load ptr, ptr %3, align 8, !tbaa !29
  %7 = load ptr, ptr %6, align 8, !tbaa !31
  store ptr %7, ptr %5, align 8, !tbaa !31
  %8 = load ptr, ptr %4, align 8, !tbaa !29
  %9 = load ptr, ptr %8, align 8, !tbaa !31
  %10 = load ptr, ptr %3, align 8, !tbaa !29
  store ptr %9, ptr %10, align 8, !tbaa !31
  %11 = load ptr, ptr %5, align 8, !tbaa !31
  %12 = load ptr, ptr %4, align 8, !tbaa !29
  store ptr %11, ptr %12, align 8, !tbaa !31
  call void @llvm.lifetime.end.p0(i64 8, ptr %5) #19
  ret void
}

; Function Attrs: inlinehint mustprogress nounwind uwtable
define linkonce_odr void @_ZSt4swapIPN4LIEF5MachO6SymbolEENSt9enable_ifIXsr6__and_ISt6__not_ISt15__is_tuple_likeIT_EESt21is_move_constructibleIS7_ESt18is_move_assignableIS7_EEE5valueEvE4typeERS7_SG_(ptr noundef nonnull align 8 dereferenceable(8) %0, ptr noundef nonnull align 8 dereferenceable(8) %1) #2 comdat {
  %3 = alloca ptr, align 8
  %4 = alloca ptr, align 8
  %5 = alloca ptr, align 8
  store ptr %0, ptr %3, align 8, !tbaa !25
  store ptr %1, ptr %4, align 8, !tbaa !25
  call void @llvm.lifetime.start.p0(i64 8, ptr %5) #19
  %6 = load ptr, ptr %3, align 8, !tbaa !25
  %7 = load ptr, ptr %6, align 8, !tbaa !28
  store ptr %7, ptr %5, align 8, !tbaa !28
  %8 = load ptr, ptr %4, align 8, !tbaa !25
  %9 = load ptr, ptr %8, align 8, !tbaa !28
  %10 = load ptr, ptr %3, align 8, !tbaa !25
  store ptr %9, ptr %10, align 8, !tbaa !28
  %11 = load ptr, ptr %5, align 8, !tbaa !28
  %12 = load ptr, ptr %4, align 8, !tbaa !25
  store ptr %11, ptr %12, align 8, !tbaa !28
  call void @llvm.lifetime.end.p0(i64 8, ptr %5) #19
  ret void
}

; Function Attrs: inlinehint mustprogress nounwind uwtable
define linkonce_odr void @_ZSt4swapImENSt9enable_ifIXsr6__and_ISt6__not_ISt15__is_tuple_likeIT_EESt21is_move_constructibleIS3_ESt18is_move_assignableIS3_EEE5valueEvE4typeERS3_SC_(ptr noundef nonnull align 8 dereferenceable(8) %0, ptr noundef nonnull align 8 dereferenceable(8) %1) #2 comdat {
  %3 = alloca ptr, align 8
  %4 = alloca ptr, align 8
  %5 = alloca i64, align 8
  store ptr %0, ptr %3, align 8, !tbaa !22
  store ptr %1, ptr %4, align 8, !tbaa !22
  call void @llvm.lifetime.start.p0(i64 8, ptr %5) #19
  %6 = load ptr, ptr %3, align 8, !tbaa !22
  %7 = load i64, ptr %6, align 8, !tbaa !24
  store i64 %7, ptr %5, align 8, !tbaa !24
  %8 = load ptr, ptr %4, align 8, !tbaa !22
  %9 = load i64, ptr %8, align 8, !tbaa !24
  %10 = load ptr, ptr %3, align 8, !tbaa !22
  store i64 %9, ptr %10, align 8, !tbaa !24
  %11 = load i64, ptr %5, align 8, !tbaa !24
  %12 = load ptr, ptr %4, align 8, !tbaa !22
  store i64 %11, ptr %12, align 8, !tbaa !24
  call void @llvm.lifetime.end.p0(i64 8, ptr %5) #19
  ret void
}

; Function Attrs: mustprogress nounwind uwtable
define void @_ZN4LIEF5MachO10ExportInfo4swapERS1_(ptr noundef nonnull align 8 dereferenceable(64) %0, ptr noundef nonnull align 8 dereferenceable(64) %1) #0 align 2 {
  %3 = alloca ptr, align 8
  %4 = alloca ptr, align 8
  store ptr %0, ptr %3, align 8, !tbaa !3
  store ptr %1, ptr %4, align 8, !tbaa !3
  %5 = load ptr, ptr %3, align 8
  %6 = getelementptr inbounds nuw %"class.LIEF::MachO::ExportInfo", ptr %5, i32 0, i32 1
  %7 = load ptr, ptr %4, align 8, !tbaa !3
  %8 = getelementptr inbounds nuw %"class.LIEF::MachO::ExportInfo", ptr %7, i32 0, i32 1
  call void @_ZSt4swapImENSt9enable_ifIXsr6__and_ISt6__not_ISt15__is_tuple_likeIT_EESt21is_move_constructibleIS3_ESt18is_move_assignableIS3_EEE5valueEvE4typeERS3_SC_(ptr noundef nonnull align 8 dereferenceable(8) %6, ptr noundef nonnull align 8 dereferenceable(8) %8) #19
  %9 = getelementptr inbounds nuw %"class.LIEF::MachO::ExportInfo", ptr %5, i32 0, i32 2
  %10 = load ptr, ptr %4, align 8, !tbaa !3
  %11 = getelementptr inbounds nuw %"class.LIEF::MachO::ExportInfo", ptr %10, i32 0, i32 2
  call void @_ZSt4swapImENSt9enable_ifIXsr6__and_ISt6__not_ISt15__is_tuple_likeIT_EESt21is_move_constructibleIS3_ESt18is_move_assignableIS3_EEE5valueEvE4typeERS3_SC_(ptr noundef nonnull align 8 dereferenceable(8) %9, ptr noundef nonnull align 8 dereferenceable(8) %11) #19
  %12 = getelementptr inbounds nuw %"class.LIEF::MachO::ExportInfo", ptr %5, i32 0, i32 3
  %13 = load ptr, ptr %4, align 8, !tbaa !3
  %14 = getelementptr inbounds nuw %"class.LIEF::MachO::ExportInfo", ptr %13, i32 0, i32 3
  call void @_ZSt4swapImENSt9enable_ifIXsr6__and_ISt6__not_ISt15__is_tuple_likeIT_EESt21is_move_constructibleIS3_ESt18is_move_assignableIS3_EEE5valueEvE4typeERS3_SC_(ptr noundef nonnull align 8 dereferenceable(8) %12, ptr noundef nonnull align 8 dereferenceable(8) %14) #19
  %15 = getelementptr inbounds nuw %"class.LIEF::MachO::ExportInfo", ptr %5, i32 0, i32 4
  %16 = load ptr, ptr %4, align 8, !tbaa !3
  %17 = getelementptr inbounds nuw %"class.LIEF::MachO::ExportInfo", ptr %16, i32 0, i32 4
  call void @_ZSt4swapImENSt9enable_ifIXsr6__and_ISt6__not_ISt15__is_tuple_likeIT_EESt21is_move_constructibleIS3_ESt18is_move_assignableIS3_EEE5valueEvE4typeERS3_SC_(ptr noundef nonnull align 8 dereferenceable(8) %15, ptr noundef nonnull align 8 dereferenceable(8) %17) #19
  %18 = getelementptr inbounds nuw %"class.LIEF::MachO::ExportInfo", ptr %5, i32 0, i32 5
  %19 = load ptr, ptr %4, align 8, !tbaa !3
  %20 = getelementptr inbounds nuw %"class.LIEF::MachO::ExportInfo", ptr %19, i32 0, i32 5
  call void @_ZSt4swapIPN4LIEF5MachO6SymbolEENSt9enable_ifIXsr6__and_ISt6__not_ISt15__is_tuple_likeIT_EESt21is_move_constructibleIS7_ESt18is_move_assignableIS7_EEE5valueEvE4typeERS7_SG_(ptr noundef nonnull align 8 dereferenceable(8) %18, ptr noundef nonnull align 8 dereferenceable(8) %20) #19
  %21 = getelementptr inbounds nuw %"class.LIEF::MachO::ExportInfo", ptr %5, i32 0, i32 6
  %22 = load ptr, ptr %4, align 8, !tbaa !3
  %23 = getelementptr inbounds nuw %"class.LIEF::MachO::ExportInfo", ptr %22, i32 0, i32 6
  call void @_ZSt4swapIPN4LIEF5MachO6SymbolEENSt9enable_ifIXsr6__and_ISt6__not_ISt15__is_tuple_likeIT_EESt21is_move_constructibleIS7_ESt18is_move_assignableIS7_EEE5valueEvE4typeERS7_SG_(ptr noundef nonnull align 8 dereferenceable(8) %21, ptr noundef nonnull align 8 dereferenceable(8) %23) #19
  %24 = getelementptr inbounds nuw %"class.LIEF::MachO::ExportInfo", ptr %5, i32 0, i32 7
  %25 = load ptr, ptr %4, align 8, !tbaa !3
  %26 = getelementptr inbounds nuw %"class.LIEF::MachO::ExportInfo", ptr %25, i32 0, i32 7
  call void @_ZSt4swapIPN4LIEF5MachO12DylibCommandEENSt9enable_ifIXsr6__and_ISt6__not_ISt15__is_tuple_likeIT_EESt21is_move_constructibleIS7_ESt18is_move_assignableIS7_EEE5valueEvE4typeERS7_SG_(ptr noundef nonnull align 8 dereferenceable(8) %24, ptr noundef nonnull align 8 dereferenceable(8) %26) #19
  ret void
}