; Function Attrs: mustprogress nofree norecurse nosync nounwind willreturn memory(argmem: readwrite) uwtable
define void @_ZN4LIEF5MachO10ExportInfo4swapERS1_(ptr noundef nonnull align 8 captures(none) dereferenceable(64) %0, ptr noundef nonnull align 8 captures(none) dereferenceable(64) %1) local_unnamed_addr #0 align 2 {
  %3 = getelementptr inbounds nuw i8, ptr %0, i64 8
  %4 = getelementptr inbounds nuw i8, ptr %1, i64 8
  %5 = load i64, ptr %3, align 8, !tbaa !3
  %6 = load i64, ptr %4, align 8, !tbaa !3
  store i64 %6, ptr %3, align 8, !tbaa !3
  store i64 %5, ptr %4, align 8, !tbaa !3
  %7 = getelementptr inbounds nuw i8, ptr %0, i64 16
  %8 = getelementptr inbounds nuw i8, ptr %1, i64 16
  %9 = load i64, ptr %7, align 8, !tbaa !3
  %10 = load i64, ptr %8, align 8, !tbaa !3
  store i64 %10, ptr %7, align 8, !tbaa !3
  store i64 %9, ptr %8, align 8, !tbaa !3
  %11 = getelementptr inbounds nuw i8, ptr %0, i64 24
  %12 = getelementptr inbounds nuw i8, ptr %1, i64 24
  %13 = load i64, ptr %11, align 8, !tbaa !3
  %14 = load i64, ptr %12, align 8, !tbaa !3
  store i64 %14, ptr %11, align 8, !tbaa !3
  store i64 %13, ptr %12, align 8, !tbaa !3
  %15 = getelementptr inbounds nuw i8, ptr %0, i64 32
  %16 = getelementptr inbounds nuw i8, ptr %1, i64 32
  %17 = load i64, ptr %15, align 8, !tbaa !3
  %18 = load i64, ptr %16, align 8, !tbaa !3
  store i64 %18, ptr %15, align 8, !tbaa !3
  store i64 %17, ptr %16, align 8, !tbaa !3
  %19 = getelementptr inbounds nuw i8, ptr %0, i64 40
  %20 = getelementptr inbounds nuw i8, ptr %1, i64 40
  %21 = load ptr, ptr %19, align 8, !tbaa !7
  %22 = load ptr, ptr %20, align 8, !tbaa !7
  store ptr %22, ptr %19, align 8, !tbaa !7
  store ptr %21, ptr %20, align 8, !tbaa !7
  %23 = getelementptr inbounds nuw i8, ptr %0, i64 48
  %24 = getelementptr inbounds nuw i8, ptr %1, i64 48
  %25 = load ptr, ptr %23, align 8, !tbaa !7
  %26 = load ptr, ptr %24, align 8, !tbaa !7
  store ptr %26, ptr %23, align 8, !tbaa !7
  store ptr %25, ptr %24, align 8, !tbaa !7
  %27 = getelementptr inbounds nuw i8, ptr %0, i64 56
  %28 = getelementptr inbounds nuw i8, ptr %1, i64 56
  %29 = load ptr, ptr %27, align 8, !tbaa !10
  %30 = load ptr, ptr %28, align 8, !tbaa !10
  store ptr %30, ptr %27, align 8, !tbaa !10
  store ptr %29, ptr %28, align 8, !tbaa !10
  ret void
}